(dp0
I1
Vhttp://medial-saude.guiareunimedicos.med.br/index.pl?C=A&V=5F69645F3D31373226636F756E7472793D30265F65765F3D5375626D697426713D6F6E636F6C6F67696126737465705365617263685F696E6465783D30265F666F726D5365617263685375626D69743D25334164656661756C7425334126747970653D30266163743D736561726368
p1
sI2
Vhttp://medial-saude.guiareunimedicos.med.br/index.pl?C=A&V=636F756E7472793D30265F69645F3D31373226713D6F6E636F6C6F676961265F65765F3D5375626D697426737465705365617263685F696E6465783D313026747970653D30265F666F726D5365617263685375626D69743D25334164656661756C74253341266163743D736561726368
p2
sI3
Vhttp://medial-saude.guiareunimedicos.med.br/index.pl?C=A&V=636F756E7472793D30265F69645F3D31373226713D6F6E636F6C6F676961265F65765F3D5375626D697426737465705365617263685F696E6465783D323026747970653D30265F666F726D5365617263685375626D69743D25334164656661756C74253341266163743D736561726368
p3
sI4
Vhttp://medial-saude.guiareunimedicos.med.br/index.pl?C=A&V=636F756E7472793D30265F69645F3D31373226713D6F6E636F6C6F676961265F65765F3D5375626D697426737465705365617263685F696E6465783D333026747970653D30265F666F726D5365617263685375626D69743D25334164656661756C74253341266163743D736561726368
p4
sI5
Vhttp://medial-saude.guiareunimedicos.med.br/index.pl?C=A&V=5F69645F3D31373226636F756E7472793D30265F65765F3D5375626D697426713D6F6E636F6C6F67696126737465705365617263685F696E6465783D3430265F666F726D5365617263685375626D69743D25334164656661756C7425334126747970653D30266163743D736561726368
p5
sI6
Vhttp://medial-saude.guiareunimedicos.med.br/index.pl?C=A&V=636F756E7472793D30265F69645F3D31373226713D6F6E636F6C6F676961265F65765F3D5375626D697426737465705365617263685F696E6465783D353026747970653D30265F666F726D5365617263685375626D69743D25334164656661756C74253341266163743D736561726368
p6
sI7
Vhttp://medial-saude.guiareunimedicos.med.br/index.pl?C=A&V=5F69645F3D31373226636F756E7472793D30265F65765F3D5375626D697426713D6F6E636F6C6F67696126737465705365617263685F696E6465783D3630265F666F726D5365617263685375626D69743D25334164656661756C7425334126747970653D30266163743D736561726368
p7
sI8
Vhttp://medial-saude.guiareunimedicos.med.br/index.pl?C=A&V=636F756E7472793D30265F69645F3D31373226713D6F6E636F6C6F676961265F65765F3D5375626D697426737465705365617263685F696E6465783D373026747970653D30265F666F726D5365617263685375626D69743D25334164656661756C74253341266163743D736561726368
p8
sI9
Vhttp://medial-saude.guiareunimedicos.med.br/index.pl?C=A&V=5F69645F3D31373226636F756E7472793D30265F65765F3D5375626D697426713D6F6E636F6C6F67696126737465705365617263685F696E6465783D3830265F666F726D5365617263685375626D69743D25334164656661756C7425334126747970653D30266163743D736561726368
p9
sI10
Vhttp://medial-saude.guiareunimedicos.med.br/index.pl?C=A&V=636F756E7472793D30265F69645F3D31373226713D6F6E636F6C6F676961265F65765F3D5375626D697426737465705365617263685F696E6465783D393026747970653D30265F666F726D5365617263685375626D69743D25334164656661756C74253341266163743D736561726368
p10
sI11
Vhttp://medial-saude.guiareunimedicos.med.br/index.pl?C=A&V=5F69645F3D31373226636F756E7472793D30265F65765F3D5375626D697426713D6F6E636F6C6F67696126737465705365617263685F696E6465783D313030265F666F726D5365617263685375626D69743D25334164656661756C7425334126747970653D30266163743D736561726368
p11
sI12
Vhttp://medial-saude.guiareunimedicos.med.br/index.pl?C=A&V=636F756E7472793D30265F69645F3D31373226713D6F6E636F6C6F676961265F65765F3D5375626D697426737465705365617263685F696E6465783D31313026747970653D30265F666F726D5365617263685375626D69743D25334164656661756C74253341266163743D736561726368
p12
sI13
Vhttp://medial-saude.guiareunimedicos.med.br/index.pl?C=A&V=5F69645F3D31373226636F756E7472793D30265F65765F3D5375626D697426713D6F6E636F6C6F67696126737465705365617263685F696E6465783D313230265F666F726D5365617263685375626D69743D25334164656661756C7425334126747970653D30266163743D736561726368
p13
sI14
Vhttp://medial-saude.guiareunimedicos.med.br/index.pl?C=A&V=636F756E7472793D30265F69645F3D31373226713D6F6E636F6C6F676961265F65765F3D5375626D697426737465705365617263685F696E6465783D31333026747970653D30265F666F726D5365617263685375626D69743D25334164656661756C74253341266163743D736561726368
p14
sI15
Vhttp://medial-saude.guiareunimedicos.med.br/index.pl?C=A&V=5F69645F3D31373226636F756E7472793D30265F65765F3D5375626D697426713D6F6E636F6C6F67696126737465705365617263685F696E6465783D313430265F666F726D5365617263685375626D69743D25334164656661756C7425334126747970653D30266163743D736561726368
p15
sI16
Vhttp://medial-saude.guiareunimedicos.med.br/index.pl?C=A&V=636F756E7472793D30265F69645F3D31373226713D6F6E636F6C6F676961265F65765F3D5375626D697426737465705365617263685F696E6465783D31353026747970653D30265F666F726D5365617263685375626D69743D25334164656661756C74253341266163743D736561726368
p16
sI17
Vhttp://medial-saude.guiareunimedicos.med.br/index.pl?C=A&V=5F69645F3D31373226636F756E7472793D30265F65765F3D5375626D697426713D6F6E636F6C6F67696126737465705365617263685F696E6465783D313630265F666F726D5365617263685375626D69743D25334164656661756C7425334126747970653D30266163743D736561726368
p17
sI18
Vhttp://medial-saude.guiareunimedicos.med.br/index.pl?C=A&V=636F756E7472793D30265F69645F3D31373226713D6F6E636F6C6F676961265F65765F3D5375626D697426737465705365617263685F696E6465783D31373026747970653D30265F666F726D5365617263685375626D69743D25334164656661756C74253341266163743D736561726368
p18
sI19
Vhttp://medial-saude.guiareunimedicos.med.br/index.pl?C=A&V=5F69645F3D31373226636F756E7472793D30265F65765F3D5375626D697426713D6F6E636F6C6F67696126737465705365617263685F696E6465783D313830265F666F726D5365617263685375626D69743D25334164656661756C7425334126747970653D30266163743D736561726368
p19
sI20
Vhttp://medial-saude.guiareunimedicos.med.br/index.pl?C=A&V=636F756E7472793D30265F69645F3D31373226713D6F6E636F6C6F676961265F65765F3D5375626D697426737465705365617263685F696E6465783D31393026747970653D30265F666F726D5365617263685375626D69743D25334164656661756C74253341266163743D736561726368
p20
sI21
Vhttp://medial-saude.guiareunimedicos.med.br/index.pl?C=A&V=5F69645F3D31373226636F756E7472793D30265F65765F3D5375626D697426713D6F6E636F6C6F67696126737465705365617263685F696E6465783D323030265F666F726D5365617263685375626D69743D25334164656661756C7425334126747970653D30266163743D736561726368
p21
sI22
Vhttp://medial-saude.guiareunimedicos.med.br/index.pl?C=A&V=636F756E7472793D30265F69645F3D31373226713D6F6E636F6C6F676961265F65765F3D5375626D697426737465705365617263685F696E6465783D32313026747970653D30265F666F726D5365617263685375626D69743D25334164656661756C74253341266163743D736561726368
p22
sI23
Vhttp://medial-saude.guiareunimedicos.med.br/index.pl?C=A&V=5F69645F3D31373226636F756E7472793D30265F65765F3D5375626D697426713D6F6E636F6C6F67696126737465705365617263685F696E6465783D323230265F666F726D5365617263685375626D69743D25334164656661756C7425334126747970653D30266163743D736561726368
p23
sI24
Vhttp://medial-saude.guiareunimedicos.med.br/index.pl?C=A&V=636F756E7472793D30265F69645F3D31373226713D6F6E636F6C6F676961265F65765F3D5375626D697426737465705365617263685F696E6465783D32333026747970653D30265F666F726D5365617263685375626D69743D25334164656661756C74253341266163743D736561726368
p24
sI25
Vhttp://medial-saude.guiareunimedicos.med.br/index.pl?C=A&V=5F69645F3D31373226636F756E7472793D30265F65765F3D5375626D697426713D6F6E636F6C6F67696126737465705365617263685F696E6465783D323430265F666F726D5365617263685375626D69743D25334164656661756C7425334126747970653D30266163743D736561726368
p25
sI26
Vhttp://medial-saude.guiareunimedicos.med.br/index.pl?C=A&V=636F756E7472793D30265F69645F3D31373226713D6F6E636F6C6F676961265F65765F3D5375626D697426737465705365617263685F696E6465783D32353026747970653D30265F666F726D5365617263685375626D69743D25334164656661756C74253341266163743D736561726368
p26
sI27
Vhttp://medial-saude.guiareunimedicos.med.br/index.pl?C=A&V=5F69645F3D31373226636F756E7472793D30265F65765F3D5375626D697426713D6F6E636F6C6F67696126737465705365617263685F696E6465783D323630265F666F726D5365617263685375626D69743D25334164656661756C7425334126747970653D30266163743D736561726368
p27
sI28
Vhttp://medial-saude.guiareunimedicos.med.br/index.pl?C=A&V=636F756E7472793D30265F69645F3D31373226713D6F6E636F6C6F676961265F65765F3D5375626D697426737465705365617263685F696E6465783D32373026747970653D30265F666F726D5365617263685375626D69743D25334164656661756C74253341266163743D736561726368
p28
sI29
Vhttp://medial-saude.guiareunimedicos.med.br/index.pl?C=A&V=5F69645F3D31373226636F756E7472793D30265F65765F3D5375626D697426713D6F6E636F6C6F67696126737465705365617263685F696E6465783D323830265F666F726D5365617263685375626D69743D25334164656661756C7425334126747970653D30266163743D736561726368
p29
sI30
Vhttp://medial-saude.guiareunimedicos.med.br/index.pl?C=A&V=636F756E7472793D30265F69645F3D31373226713D6F6E636F6C6F676961265F65765F3D5375626D697426737465705365617263685F696E6465783D32393026747970653D30265F666F726D5365617263685375626D69743D25334164656661756C74253341266163743D736561726368
p30
sI31
Vhttp://medial-saude.guiareunimedicos.med.br/index.pl?C=A&V=5F69645F3D31373226636F756E7472793D30265F65765F3D5375626D697426713D6F6E636F6C6F67696126737465705365617263685F696E6465783D333030265F666F726D5365617263685375626D69743D25334164656661756C7425334126747970653D30266163743D736561726368
p31
sI32
Vhttp://medial-saude.guiareunimedicos.med.br/index.pl?C=A&V=636F756E7472793D30265F69645F3D31373226713D6F6E636F6C6F676961265F65765F3D5375626D697426737465705365617263685F696E6465783D33313026747970653D30265F666F726D5365617263685375626D69743D25334164656661756C74253341266163743D736561726368
p32
sI33
Vhttp://medial-saude.guiareunimedicos.med.br/index.pl?C=A&V=5F69645F3D31373226636F756E7472793D30265F65765F3D5375626D697426713D6F6E636F6C6F67696126737465705365617263685F696E6465783D333230265F666F726D5365617263685375626D69743D25334164656661756C7425334126747970653D30266163743D736561726368
p33
sI34
Vhttp://medial-saude.guiareunimedicos.med.br/index.pl?C=A&V=636F756E7472793D30265F69645F3D31373226713D6F6E636F6C6F676961265F65765F3D5375626D697426737465705365617263685F696E6465783D33333026747970653D30265F666F726D5365617263685375626D69743D25334164656661756C74253341266163743D736561726368
p34
sI35
Vhttp://medial-saude.guiareunimedicos.med.br/index.pl?C=A&V=5F69645F3D31373226636F756E7472793D30265F65765F3D5375626D697426713D6F6E636F6C6F67696126737465705365617263685F696E6465783D333430265F666F726D5365617263685375626D69743D25334164656661756C7425334126747970653D30266163743D736561726368
p35
sI36
Vhttp://medial-saude.guiareunimedicos.med.br/index.pl?C=A&V=636F756E7472793D30265F69645F3D31373226713D6F6E636F6C6F676961265F65765F3D5375626D697426737465705365617263685F696E6465783D33353026747970653D30265F666F726D5365617263685375626D69743D25334164656661756C74253341266163743D736561726368
p36
sI37
Vhttp://medial-saude.guiareunimedicos.med.br/index.pl?C=A&V=5F69645F3D31373226636F756E7472793D30265F65765F3D5375626D697426713D6F6E636F6C6F67696126737465705365617263685F696E6465783D333630265F666F726D5365617263685375626D69743D25334164656661756C7425334126747970653D30266163743D736561726368
p37
sI38
Vhttp://medial-saude.guiareunimedicos.med.br/index.pl?C=A&V=636F756E7472793D30265F69645F3D31373226713D6F6E636F6C6F676961265F65765F3D5375626D697426737465705365617263685F696E6465783D33373026747970653D30265F666F726D5365617263685375626D69743D25334164656661756C74253341266163743D736561726368
p38
sI39
Vhttp://medial-saude.guiareunimedicos.med.br/index.pl?C=A&V=5F69645F3D31373226636F756E7472793D30265F65765F3D5375626D697426713D6F6E636F6C6F67696126737465705365617263685F696E6465783D333830265F666F726D5365617263685375626D69743D25334164656661756C7425334126747970653D30266163743D736561726368
p39
sI40
Vhttp://medial-saude.guiareunimedicos.med.br/index.pl?C=A&V=636F756E7472793D30265F69645F3D31373226713D6F6E636F6C6F676961265F65765F3D5375626D697426737465705365617263685F696E6465783D33393026747970653D30265F666F726D5365617263685375626D69743D25334164656661756C74253341266163743D736561726368
p40
sI41
Vhttp://medial-saude.guiareunimedicos.med.br/index.pl?C=A&V=5F69645F3D31373226636F756E7472793D30265F65765F3D5375626D697426713D6F6E636F6C6F67696126737465705365617263685F696E6465783D343030265F666F726D5365617263685375626D69743D25334164656661756C7425334126747970653D30266163743D736561726368
p41
sI42
Vhttp://medial-saude.guiareunimedicos.med.br/index.pl?C=A&V=636F756E7472793D30265F69645F3D31373226713D6F6E636F6C6F676961265F65765F3D5375626D697426737465705365617263685F696E6465783D34313026747970653D30265F666F726D5365617263685375626D69743D25334164656661756C74253341266163743D736561726368
p42
sI43
Vhttp://medial-saude.guiareunimedicos.med.br/index.pl?C=A&V=5F69645F3D31373226636F756E7472793D30265F65765F3D5375626D697426713D6F6E636F6C6F67696126737465705365617263685F696E6465783D343230265F666F726D5365617263685375626D69743D25334164656661756C7425334126747970653D30266163743D736561726368
p43
sI44
Vhttp://medial-saude.guiareunimedicos.med.br/index.pl?C=A&V=636F756E7472793D30265F69645F3D31373226713D6F6E636F6C6F676961265F65765F3D5375626D697426737465705365617263685F696E6465783D34333026747970653D30265F666F726D5365617263685375626D69743D25334164656661756C74253341266163743D736561726368
p44
sI45
Vhttp://medial-saude.guiareunimedicos.med.br/index.pl?C=A&V=5F69645F3D31373226636F756E7472793D30265F65765F3D5375626D697426713D6F6E636F6C6F67696126737465705365617263685F696E6465783D343430265F666F726D5365617263685375626D69743D25334164656661756C7425334126747970653D30266163743D736561726368
p45
sI46
Vhttp://medial-saude.guiareunimedicos.med.br/index.pl?C=A&V=636F756E7472793D30265F69645F3D31373226713D6F6E636F6C6F676961265F65765F3D5375626D697426737465705365617263685F696E6465783D34353026747970653D30265F666F726D5365617263685375626D69743D25334164656661756C74253341266163743D736561726368
p46
sI47
Vhttp://medial-saude.guiareunimedicos.med.br/index.pl?C=A&V=5F69645F3D31373226636F756E7472793D30265F65765F3D5375626D697426713D6F6E636F6C6F67696126737465705365617263685F696E6465783D343630265F666F726D5365617263685375626D69743D25334164656661756C7425334126747970653D30266163743D736561726368
p47
sI48
Vhttp://medial-saude.guiareunimedicos.med.br/index.pl?C=A&V=636F756E7472793D30265F69645F3D31373226713D6F6E636F6C6F676961265F65765F3D5375626D697426737465705365617263685F696E6465783D34373026747970653D30265F666F726D5365617263685375626D69743D25334164656661756C74253341266163743D736561726368
p48
sI49
Vhttp://medial-saude.guiareunimedicos.med.br/index.pl?C=A&V=5F69645F3D31373226636F756E7472793D30265F65765F3D5375626D697426713D6F6E636F6C6F67696126737465705365617263685F696E6465783D343830265F666F726D5365617263685375626D69743D25334164656661756C7425334126747970653D30266163743D736561726368
p49
sI50
Vhttp://medial-saude.guiareunimedicos.med.br/index.pl?C=A&V=636F756E7472793D30265F69645F3D31373226713D6F6E636F6C6F676961265F65765F3D5375626D697426737465705365617263685F696E6465783D34393026747970653D30265F666F726D5365617263685375626D69743D25334164656661756C74253341266163743D736561726368
p50
sI51
Vhttp://medial-saude.guiareunimedicos.med.br/index.pl?C=A&V=5F69645F3D31373226636F756E7472793D30265F65765F3D5375626D697426713D6F6E636F6C6F67696126737465705365617263685F696E6465783D353030265F666F726D5365617263685375626D69743D25334164656661756C7425334126747970653D30266163743D736561726368
p51
sI52
Vhttp://medial-saude.guiareunimedicos.med.br/index.pl?C=A&V=636F756E7472793D30265F69645F3D31373226713D6F6E636F6C6F676961265F65765F3D5375626D697426737465705365617263685F696E6465783D35313026747970653D30265F666F726D5365617263685375626D69743D25334164656661756C74253341266163743D736561726368
p52
sI53
Vhttp://medial-saude.guiareunimedicos.med.br/index.pl?C=A&V=5F69645F3D31373226636F756E7472793D30265F65765F3D5375626D697426713D6F6E636F6C6F67696126737465705365617263685F696E6465783D353230265F666F726D5365617263685375626D69743D25334164656661756C7425334126747970653D30266163743D736561726368
p53
sI54
Vhttp://medial-saude.guiareunimedicos.med.br/index.pl?C=A&V=636F756E7472793D30265F69645F3D31373226713D6F6E636F6C6F676961265F65765F3D5375626D697426737465705365617263685F696E6465783D35333026747970653D30265F666F726D5365617263685375626D69743D25334164656661756C74253341266163743D736561726368
p54
sI55
Vhttp://medial-saude.guiareunimedicos.med.br/index.pl?C=A&V=5F69645F3D31373226636F756E7472793D30265F65765F3D5375626D697426713D6F6E636F6C6F67696126737465705365617263685F696E6465783D353430265F666F726D5365617263685375626D69743D25334164656661756C7425334126747970653D30266163743D736561726368
p55
sI56
Vhttp://medial-saude.guiareunimedicos.med.br/index.pl?C=A&V=636F756E7472793D30265F69645F3D31373226713D6F6E636F6C6F676961265F65765F3D5375626D697426737465705365617263685F696E6465783D35353026747970653D30265F666F726D5365617263685375626D69743D25334164656661756C74253341266163743D736561726368
p56
sI57
Vhttp://medial-saude.guiareunimedicos.med.br/index.pl?C=A&V=5F69645F3D31373226636F756E7472793D30265F65765F3D5375626D697426713D6F6E636F6C6F67696126737465705365617263685F696E6465783D353630265F666F726D5365617263685375626D69743D25334164656661756C7425334126747970653D30266163743D736561726368
p57
sI58
Vhttp://medial-saude.guiareunimedicos.med.br/index.pl?C=A&V=636F756E7472793D30265F69645F3D31373226713D6F6E636F6C6F676961265F65765F3D5375626D697426737465705365617263685F696E6465783D35373026747970653D30265F666F726D5365617263685375626D69743D25334164656661756C74253341266163743D736561726368
p58
sI59
Vhttp://medial-saude.guiareunimedicos.med.br/index.pl?C=A&V=5F69645F3D31373226636F756E7472793D30265F65765F3D5375626D697426713D6F6E636F6C6F67696126737465705365617263685F696E6465783D353830265F666F726D5365617263685375626D69743D25334164656661756C7425334126747970653D30266163743D736561726368
p59
sI60
Vhttp://medial-saude.guiareunimedicos.med.br/index.pl?C=A&V=636F756E7472793D30265F69645F3D31373226713D6F6E636F6C6F676961265F65765F3D5375626D697426737465705365617263685F696E6465783D35393026747970653D30265F666F726D5365617263685375626D69743D25334164656661756C74253341266163743D736561726368
p60
sI61
Vhttp://medial-saude.guiareunimedicos.med.br/index.pl?C=A&V=5F69645F3D31373226636F756E7472793D30265F65765F3D5375626D697426713D6F6E636F6C6F67696126737465705365617263685F696E6465783D363030265F666F726D5365617263685375626D69743D25334164656661756C7425334126747970653D30266163743D736561726368
p61
sI62
Vhttp://medial-saude.guiareunimedicos.med.br/index.pl?C=A&V=636F756E7472793D30265F69645F3D31373226713D6F6E636F6C6F676961265F65765F3D5375626D697426737465705365617263685F696E6465783D36313026747970653D30265F666F726D5365617263685375626D69743D25334164656661756C74253341266163743D736561726368
p62
sI63
Vhttp://medial-saude.guiareunimedicos.med.br/index.pl?C=A&V=5F69645F3D31373226636F756E7472793D30265F65765F3D5375626D697426713D6F6E636F6C6F67696126737465705365617263685F696E6465783D363230265F666F726D5365617263685375626D69743D25334164656661756C7425334126747970653D30266163743D736561726368
p63
sI64
Vhttp://medial-saude.guiareunimedicos.med.br/index.pl?C=A&V=636F756E7472793D30265F69645F3D31373226713D6F6E636F6C6F676961265F65765F3D5375626D697426737465705365617263685F696E6465783D36333026747970653D30265F666F726D5365617263685375626D69743D25334164656661756C74253341266163743D736561726368
p64
sI65
Vhttp://medial-saude.guiareunimedicos.med.br/index.pl?C=A&V=5F69645F3D31373226636F756E7472793D30265F65765F3D5375626D697426713D6F6E636F6C6F67696126737465705365617263685F696E6465783D363430265F666F726D5365617263685375626D69743D25334164656661756C7425334126747970653D30266163743D736561726368
p65
sI66
Vhttp://medial-saude.guiareunimedicos.med.br/index.pl?C=A&V=636F756E7472793D30265F69645F3D31373226713D6F6E636F6C6F676961265F65765F3D5375626D697426737465705365617263685F696E6465783D36353026747970653D30265F666F726D5365617263685375626D69743D25334164656661756C74253341266163743D736561726368
p66
sI67
Vhttp://medial-saude.guiareunimedicos.med.br/index.pl?C=A&V=5F69645F3D31373226636F756E7472793D30265F65765F3D5375626D697426713D6F6E636F6C6F67696126737465705365617263685F696E6465783D363630265F666F726D5365617263685375626D69743D25334164656661756C7425334126747970653D30266163743D736561726368
p67
sI68
Vhttp://medial-saude.guiareunimedicos.med.br/index.pl?C=A&V=636F756E7472793D30265F69645F3D31373226713D6F6E636F6C6F676961265F65765F3D5375626D697426737465705365617263685F696E6465783D36373026747970653D30265F666F726D5365617263685375626D69743D25334164656661756C74253341266163743D736561726368
p68
sI69
Vhttp://medial-saude.guiareunimedicos.med.br/index.pl?C=A&V=5F69645F3D31373226636F756E7472793D30265F65765F3D5375626D697426713D6F6E636F6C6F67696126737465705365617263685F696E6465783D363830265F666F726D5365617263685375626D69743D25334164656661756C7425334126747970653D30266163743D736561726368
p69
sI70
Vhttp://medial-saude.guiareunimedicos.med.br/index.pl?C=A&V=636F756E7472793D30265F69645F3D31373226713D6F6E636F6C6F676961265F65765F3D5375626D697426737465705365617263685F696E6465783D36393026747970653D30265F666F726D5365617263685375626D69743D25334164656661756C74253341266163743D736561726368
p70
sI71
Vhttp://medial-saude.guiareunimedicos.med.br/index.pl?C=A&V=5F69645F3D31373226636F756E7472793D30265F65765F3D5375626D697426713D6F6E636F6C6F67696126737465705365617263685F696E6465783D373030265F666F726D5365617263685375626D69743D25334164656661756C7425334126747970653D30266163743D736561726368
p71
sI72
Vhttp://medial-saude.guiareunimedicos.med.br/index.pl?C=A&V=636F756E7472793D30265F69645F3D31373226713D6F6E636F6C6F676961265F65765F3D5375626D697426737465705365617263685F696E6465783D37313026747970653D30265F666F726D5365617263685375626D69743D25334164656661756C74253341266163743D736561726368
p72
sI73
Vhttp://medial-saude.guiareunimedicos.med.br/index.pl?C=A&V=5F69645F3D31373226636F756E7472793D30265F65765F3D5375626D697426713D6F6E636F6C6F67696126737465705365617263685F696E6465783D373230265F666F726D5365617263685375626D69743D25334164656661756C7425334126747970653D30266163743D736561726368
p73
sI74
Vhttp://medial-saude.guiareunimedicos.med.br/index.pl?C=A&V=636F756E7472793D30265F69645F3D31373226713D6F6E636F6C6F676961265F65765F3D5375626D697426737465705365617263685F696E6465783D37333026747970653D30265F666F726D5365617263685375626D69743D25334164656661756C74253341266163743D736561726368
p74
sI75
Vhttp://medial-saude.guiareunimedicos.med.br/index.pl?C=A&V=5F69645F3D31373226636F756E7472793D30265F65765F3D5375626D697426713D6F6E636F6C6F67696126737465705365617263685F696E6465783D373430265F666F726D5365617263685375626D69743D25334164656661756C7425334126747970653D30266163743D736561726368
p75
sI76
Vhttp://medial-saude.guiareunimedicos.med.br/index.pl?C=A&V=636F756E7472793D30265F69645F3D31373226713D6F6E636F6C6F676961265F65765F3D5375626D697426737465705365617263685F696E6465783D37353026747970653D30265F666F726D5365617263685375626D69743D25334164656661756C74253341266163743D736561726368
p76
sI77
Vhttp://medial-saude.guiareunimedicos.med.br/index.pl?C=A&V=5F69645F3D31373226636F756E7472793D30265F65765F3D5375626D697426713D6F6E636F6C6F67696126737465705365617263685F696E6465783D373630265F666F726D5365617263685375626D69743D25334164656661756C7425334126747970653D30266163743D736561726368
p77
sI78
Vhttp://medial-saude.guiareunimedicos.med.br/index.pl?C=A&V=636F756E7472793D30265F69645F3D31373226713D6F6E636F6C6F676961265F65765F3D5375626D697426737465705365617263685F696E6465783D37373026747970653D30265F666F726D5365617263685375626D69743D25334164656661756C74253341266163743D736561726368
p78
sI79
Vhttp://medial-saude.guiareunimedicos.med.br/index.pl?C=A&V=5F69645F3D31373226636F756E7472793D30265F65765F3D5375626D697426713D6F6E636F6C6F67696126737465705365617263685F696E6465783D373830265F666F726D5365617263685375626D69743D25334164656661756C7425334126747970653D30266163743D736561726368
p79
sI80
Vhttp://medial-saude.guiareunimedicos.med.br/index.pl?C=A&V=636F756E7472793D30265F69645F3D31373226713D6F6E636F6C6F676961265F65765F3D5375626D697426737465705365617263685F696E6465783D37393026747970653D30265F666F726D5365617263685375626D69743D25334164656661756C74253341266163743D736561726368
p80
sI81
Vhttp://medial-saude.guiareunimedicos.med.br/index.pl?C=A&V=5F69645F3D31373226636F756E7472793D30265F65765F3D5375626D697426713D6F6E636F6C6F67696126737465705365617263685F696E6465783D383030265F666F726D5365617263685375626D69743D25334164656661756C7425334126747970653D30266163743D736561726368
p81
sI82
Vhttp://medial-saude.guiareunimedicos.med.br/index.pl?C=A&V=636F756E7472793D30265F69645F3D31373226713D6F6E636F6C6F676961265F65765F3D5375626D697426737465705365617263685F696E6465783D38313026747970653D30265F666F726D5365617263685375626D69743D25334164656661756C74253341266163743D736561726368
p82
sI83
Vhttp://medial-saude.guiareunimedicos.med.br/index.pl?C=A&V=5F69645F3D31373226636F756E7472793D30265F65765F3D5375626D697426713D6F6E636F6C6F67696126737465705365617263685F696E6465783D383230265F666F726D5365617263685375626D69743D25334164656661756C7425334126747970653D30266163743D736561726368
p83
sI84
Vhttp://medial-saude.guiareunimedicos.med.br/index.pl?C=A&V=636F756E7472793D30265F69645F3D31373226713D6F6E636F6C6F676961265F65765F3D5375626D697426737465705365617263685F696E6465783D38333026747970653D30265F666F726D5365617263685375626D69743D25334164656661756C74253341266163743D736561726368
p84
sI85
Vhttp://medial-saude.guiareunimedicos.med.br/index.pl?C=A&V=5F69645F3D31373226636F756E7472793D30265F65765F3D5375626D697426713D6F6E636F6C6F67696126737465705365617263685F696E6465783D383430265F666F726D5365617263685375626D69743D25334164656661756C7425334126747970653D30266163743D736561726368
p85
sI86
Vhttp://medial-saude.guiareunimedicos.med.br/index.pl?C=A&V=636F756E7472793D30265F69645F3D31373226713D6F6E636F6C6F676961265F65765F3D5375626D697426737465705365617263685F696E6465783D38353026747970653D30265F666F726D5365617263685375626D69743D25334164656661756C74253341266163743D736561726368
p86
sI87
Vhttp://medial-saude.guiareunimedicos.med.br/index.pl?C=A&V=5F69645F3D31373226636F756E7472793D30265F65765F3D5375626D697426713D6F6E636F6C6F67696126737465705365617263685F696E6465783D383630265F666F726D5365617263685375626D69743D25334164656661756C7425334126747970653D30266163743D736561726368
p87
sI88
Vhttp://medial-saude.guiareunimedicos.med.br/index.pl?C=A&V=636F756E7472793D30265F69645F3D31373226713D6F6E636F6C6F676961265F65765F3D5375626D697426737465705365617263685F696E6465783D38373026747970653D30265F666F726D5365617263685375626D69743D25334164656661756C74253341266163743D736561726368
p88
sI89
Vhttp://medial-saude.guiareunimedicos.med.br/index.pl?C=A&V=5F69645F3D31373226636F756E7472793D30265F65765F3D5375626D697426713D6F6E636F6C6F67696126737465705365617263685F696E6465783D383830265F666F726D5365617263685375626D69743D25334164656661756C7425334126747970653D30266163743D736561726368
p89
sI90
Vhttp://medial-saude.guiareunimedicos.med.br/index.pl?C=A&V=636F756E7472793D30265F69645F3D31373226713D6F6E636F6C6F676961265F65765F3D5375626D697426737465705365617263685F696E6465783D38393026747970653D30265F666F726D5365617263685375626D69743D25334164656661756C74253341266163743D736561726368
p90
sI91
Vhttp://medial-saude.guiareunimedicos.med.br/index.pl?C=A&V=5F69645F3D31373226636F756E7472793D30265F65765F3D5375626D697426713D6F6E636F6C6F67696126737465705365617263685F696E6465783D393030265F666F726D5365617263685375626D69743D25334164656661756C7425334126747970653D30266163743D736561726368
p91
sI92
Vhttp://medial-saude.guiareunimedicos.med.br/index.pl?C=A&V=636F756E7472793D30265F69645F3D31373226713D6F6E636F6C6F676961265F65765F3D5375626D697426737465705365617263685F696E6465783D39313026747970653D30265F666F726D5365617263685375626D69743D25334164656661756C74253341266163743D736561726368
p92
sI93
Vhttp://medial-saude.guiareunimedicos.med.br/index.pl?C=A&V=5F69645F3D31373226636F756E7472793D30265F65765F3D5375626D697426713D6F6E636F6C6F67696126737465705365617263685F696E6465783D393230265F666F726D5365617263685375626D69743D25334164656661756C7425334126747970653D30266163743D736561726368
p93
sI94
Vhttp://medial-saude.guiareunimedicos.med.br/index.pl?C=A&V=636F756E7472793D30265F69645F3D31373226713D6F6E636F6C6F676961265F65765F3D5375626D697426737465705365617263685F696E6465783D39333026747970653D30265F666F726D5365617263685375626D69743D25334164656661756C74253341266163743D736561726368
p94
sI95
Vhttp://medial-saude.guiareunimedicos.med.br/index.pl?C=A&V=5F69645F3D31373226636F756E7472793D30265F65765F3D5375626D697426713D6F6E636F6C6F67696126737465705365617263685F696E6465783D393430265F666F726D5365617263685375626D69743D25334164656661756C7425334126747970653D30266163743D736561726368
p95
sI96
Vhttp://medial-saude.guiareunimedicos.med.br/index.pl?C=A&V=636F756E7472793D30265F69645F3D31373226713D6F6E636F6C6F676961265F65765F3D5375626D697426737465705365617263685F696E6465783D39353026747970653D30265F666F726D5365617263685375626D69743D25334164656661756C74253341266163743D736561726368
p96
sI97
Vhttp://medial-saude.guiareunimedicos.med.br/index.pl?C=A&V=5F69645F3D31373226636F756E7472793D30265F65765F3D5375626D697426713D6F6E636F6C6F67696126737465705365617263685F696E6465783D393630265F666F726D5365617263685375626D69743D25334164656661756C7425334126747970653D30266163743D736561726368
p97
sI98
Vhttp://medial-saude.guiareunimedicos.med.br/index.pl?C=A&V=636F756E7472793D30265F69645F3D31373226713D6F6E636F6C6F676961265F65765F3D5375626D697426737465705365617263685F696E6465783D39373026747970653D30265F666F726D5365617263685375626D69743D25334164656661756C74253341266163743D736561726368
p98
sI99
Vhttp://medial-saude.guiareunimedicos.med.br/index.pl?C=A&V=5F69645F3D31373226636F756E7472793D30265F65765F3D5375626D697426713D6F6E636F6C6F67696126737465705365617263685F696E6465783D393830265F666F726D5365617263685375626D69743D25334164656661756C7425334126747970653D30266163743D736561726368
p99
sI100
Vhttp://medial-saude.guiareunimedicos.med.br/index.pl?C=A&V=636F756E7472793D30265F69645F3D31373226713D6F6E636F6C6F676961265F65765F3D5375626D697426737465705365617263685F696E6465783D39393026747970653D30265F666F726D5365617263685375626D69743D25334164656661756C74253341266163743D736561726368
p100
sI101
Vhttp://medial-saude.guiareunimedicos.med.br/index.pl?C=A&V=5F69645F3D31373226636F756E7472793D30265F65765F3D5375626D697426713D6F6E636F6C6F67696126737465705365617263685F696E6465783D31303030265F666F726D5365617263685375626D69743D25334164656661756C7425334126747970653D30266163743D736561726368
p101
sI102
Vhttp://medial-saude.guiareunimedicos.med.br/index.pl?C=A&V=636F756E7472793D30265F69645F3D31373226713D6F6E636F6C6F676961265F65765F3D5375626D697426737465705365617263685F696E6465783D3130313026747970653D30265F666F726D5365617263685375626D69743D25334164656661756C74253341266163743D736561726368
p102
sI103
Vhttp://medial-saude.guiareunimedicos.med.br/index.pl?C=A&V=5F69645F3D31373226636F756E7472793D30265F65765F3D5375626D697426713D6F6E636F6C6F67696126737465705365617263685F696E6465783D31303230265F666F726D5365617263685375626D69743D25334164656661756C7425334126747970653D30266163743D736561726368
p103
sI104
Vhttp://medial-saude.guiareunimedicos.med.br/index.pl?C=A&V=636F756E7472793D30265F69645F3D31373226713D6F6E636F6C6F676961265F65765F3D5375626D697426737465705365617263685F696E6465783D3130333026747970653D30265F666F726D5365617263685375626D69743D25334164656661756C74253341266163743D736561726368
p104
sI105
Vhttp://medial-saude.guiareunimedicos.med.br/index.pl?C=A&V=5F69645F3D31373226636F756E7472793D30265F65765F3D5375626D697426713D6F6E636F6C6F67696126737465705365617263685F696E6465783D31303430265F666F726D5365617263685375626D69743D25334164656661756C7425334126747970653D30266163743D736561726368
p105
sI106
Vhttp://medial-saude.guiareunimedicos.med.br/index.pl?C=A&V=636F756E7472793D30265F69645F3D31373226713D6F6E636F6C6F676961265F65765F3D5375626D697426737465705365617263685F696E6465783D3130353026747970653D30265F666F726D5365617263685375626D69743D25334164656661756C74253341266163743D736561726368
p106
sI107
Vhttp://medial-saude.guiareunimedicos.med.br/index.pl?C=A&V=5F69645F3D31373226636F756E7472793D30265F65765F3D5375626D697426713D6F6E636F6C6F67696126737465705365617263685F696E6465783D31303630265F666F726D5365617263685375626D69743D25334164656661756C7425334126747970653D30266163743D736561726368
p107
sI108
Vhttp://medial-saude.guiareunimedicos.med.br/index.pl?C=A&V=636F756E7472793D30265F69645F3D31373226713D6F6E636F6C6F676961265F65765F3D5375626D697426737465705365617263685F696E6465783D3130373026747970653D30265F666F726D5365617263685375626D69743D25334164656661756C74253341266163743D736561726368
p108
sI109
Vhttp://medial-saude.guiareunimedicos.med.br/index.pl?C=A&V=5F69645F3D31373226636F756E7472793D30265F65765F3D5375626D697426713D6F6E636F6C6F67696126737465705365617263685F696E6465783D31303830265F666F726D5365617263685375626D69743D25334164656661756C7425334126747970653D30266163743D736561726368
p109
sI110
Vhttp://medial-saude.guiareunimedicos.med.br/index.pl?C=A&V=636F756E7472793D30265F69645F3D31373226713D6F6E636F6C6F676961265F65765F3D5375626D697426737465705365617263685F696E6465783D3130393026747970653D30265F666F726D5365617263685375626D69743D25334164656661756C74253341266163743D736561726368
p110
sI111
Vhttp://medial-saude.guiareunimedicos.med.br/index.pl?C=A&V=5F69645F3D31373226636F756E7472793D30265F65765F3D5375626D697426713D6F6E636F6C6F67696126737465705365617263685F696E6465783D31313030265F666F726D5365617263685375626D69743D25334164656661756C7425334126747970653D30266163743D736561726368
p111
sI112
Vhttp://medial-saude.guiareunimedicos.med.br/index.pl?C=A&V=636F756E7472793D30265F69645F3D31373226713D6F6E636F6C6F676961265F65765F3D5375626D697426737465705365617263685F696E6465783D3131313026747970653D30265F666F726D5365617263685375626D69743D25334164656661756C74253341266163743D736561726368
p112
sI113
Vhttp://medial-saude.guiareunimedicos.med.br/index.pl?C=A&V=5F69645F3D31373226636F756E7472793D30265F65765F3D5375626D697426713D6F6E636F6C6F67696126737465705365617263685F696E6465783D31313230265F666F726D5365617263685375626D69743D25334164656661756C7425334126747970653D30266163743D736561726368
p113
sI114
Vhttp://medial-saude.guiareunimedicos.med.br/index.pl?C=A&V=636F756E7472793D30265F69645F3D31373226713D6F6E636F6C6F676961265F65765F3D5375626D697426737465705365617263685F696E6465783D3131333026747970653D30265F666F726D5365617263685375626D69743D25334164656661756C74253341266163743D736561726368
p114
sI115
Vhttp://medial-saude.guiareunimedicos.med.br/index.pl?C=A&V=5F69645F3D31373226636F756E7472793D30265F65765F3D5375626D697426713D6F6E636F6C6F67696126737465705365617263685F696E6465783D31313430265F666F726D5365617263685375626D69743D25334164656661756C7425334126747970653D30266163743D736561726368
p115
sI116
Vhttp://medial-saude.guiareunimedicos.med.br/index.pl?C=A&V=636F756E7472793D30265F69645F3D31373226713D6F6E636F6C6F676961265F65765F3D5375626D697426737465705365617263685F696E6465783D3131353026747970653D30265F666F726D5365617263685375626D69743D25334164656661756C74253341266163743D736561726368
p116
sI117
Vhttp://medial-saude.guiareunimedicos.med.br/index.pl?C=A&V=5F69645F3D31373226636F756E7472793D30265F65765F3D5375626D697426713D6F6E636F6C6F67696126737465705365617263685F696E6465783D31313630265F666F726D5365617263685375626D69743D25334164656661756C7425334126747970653D30266163743D736561726368
p117
sI118
Vhttp://medial-saude.guiareunimedicos.med.br/index.pl?C=A&V=636F756E7472793D30265F69645F3D31373226713D6F6E636F6C6F676961265F65765F3D5375626D697426737465705365617263685F696E6465783D3131373026747970653D30265F666F726D5365617263685375626D69743D25334164656661756C74253341266163743D736561726368
p118
sI119
Vhttp://medial-saude.guiareunimedicos.med.br/index.pl?C=A&V=5F69645F3D31373226636F756E7472793D30265F65765F3D5375626D697426713D6F6E636F6C6F67696126737465705365617263685F696E6465783D31313830265F666F726D5365617263685375626D69743D25334164656661756C7425334126747970653D30266163743D736561726368
p119
sI120
Vhttp://medial-saude.guiareunimedicos.med.br/index.pl?C=A&V=636F756E7472793D30265F69645F3D31373226713D6F6E636F6C6F676961265F65765F3D5375626D697426737465705365617263685F696E6465783D3131393026747970653D30265F666F726D5365617263685375626D69743D25334164656661756C74253341266163743D736561726368
p120
sI121
Vhttp://medial-saude.guiareunimedicos.med.br/index.pl?C=A&V=5F69645F3D31373226636F756E7472793D30265F65765F3D5375626D697426713D6F6E636F6C6F67696126737465705365617263685F696E6465783D31323030265F666F726D5365617263685375626D69743D25334164656661756C7425334126747970653D30266163743D736561726368
p121
sI122
Vhttp://medial-saude.guiareunimedicos.med.br/index.pl?C=A&V=636F756E7472793D30265F69645F3D31373226713D6F6E636F6C6F676961265F65765F3D5375626D697426737465705365617263685F696E6465783D3132313026747970653D30265F666F726D5365617263685375626D69743D25334164656661756C74253341266163743D736561726368
p122
sI123
Vhttp://medial-saude.guiareunimedicos.med.br/index.pl?C=A&V=5F69645F3D31373226636F756E7472793D30265F65765F3D5375626D697426713D6F6E636F6C6F67696126737465705365617263685F696E6465783D31323230265F666F726D5365617263685375626D69743D25334164656661756C7425334126747970653D30266163743D736561726368
p123
sI124
Vhttp://medial-saude.guiareunimedicos.med.br/index.pl?C=A&V=636F756E7472793D30265F69645F3D31373226713D6F6E636F6C6F676961265F65765F3D5375626D697426737465705365617263685F696E6465783D3132333026747970653D30265F666F726D5365617263685375626D69743D25334164656661756C74253341266163743D736561726368
p124
sI125
Vhttp://medial-saude.guiareunimedicos.med.br/index.pl?C=A&V=5F69645F3D31373226636F756E7472793D30265F65765F3D5375626D697426713D6F6E636F6C6F67696126737465705365617263685F696E6465783D31323430265F666F726D5365617263685375626D69743D25334164656661756C7425334126747970653D30266163743D736561726368
p125
sI126
Vhttp://medial-saude.guiareunimedicos.med.br/index.pl?C=A&V=636F756E7472793D30265F69645F3D31373226713D6F6E636F6C6F676961265F65765F3D5375626D697426737465705365617263685F696E6465783D3132353026747970653D30265F666F726D5365617263685375626D69743D25334164656661756C74253341266163743D736561726368
p126
sI127
Vhttp://medial-saude.guiareunimedicos.med.br/index.pl?C=A&V=5F69645F3D31373226636F756E7472793D30265F65765F3D5375626D697426713D6F6E636F6C6F67696126737465705365617263685F696E6465783D31323630265F666F726D5365617263685375626D69743D25334164656661756C7425334126747970653D30266163743D736561726368
p127
sI128
Vhttp://medial-saude.guiareunimedicos.med.br/index.pl?C=A&V=636F756E7472793D30265F69645F3D31373226713D6F6E636F6C6F676961265F65765F3D5375626D697426737465705365617263685F696E6465783D3132373026747970653D30265F666F726D5365617263685375626D69743D25334164656661756C74253341266163743D736561726368
p128
sI129
Vhttp://medial-saude.guiareunimedicos.med.br/index.pl?C=A&V=5F69645F3D31373226636F756E7472793D30265F65765F3D5375626D697426713D6F6E636F6C6F67696126737465705365617263685F696E6465783D31323830265F666F726D5365617263685375626D69743D25334164656661756C7425334126747970653D30266163743D736561726368
p129
sI130
Vhttp://medial-saude.guiareunimedicos.med.br/index.pl?C=A&V=636F756E7472793D30265F69645F3D31373226713D6F6E636F6C6F676961265F65765F3D5375626D697426737465705365617263685F696E6465783D3132393026747970653D30265F666F726D5365617263685375626D69743D25334164656661756C74253341266163743D736561726368
p130
sI131
Vhttp://medial-saude.guiareunimedicos.med.br/index.pl?C=A&V=5F69645F3D31373226636F756E7472793D30265F65765F3D5375626D697426713D6F6E636F6C6F67696126737465705365617263685F696E6465783D31333030265F666F726D5365617263685375626D69743D25334164656661756C7425334126747970653D30266163743D736561726368
p131
sI132
Vhttp://medial-saude.guiareunimedicos.med.br/index.pl?C=A&V=636F756E7472793D30265F69645F3D31373226713D6F6E636F6C6F676961265F65765F3D5375626D697426737465705365617263685F696E6465783D3133313026747970653D30265F666F726D5365617263685375626D69743D25334164656661756C74253341266163743D736561726368
p132
sI133
Vhttp://medial-saude.guiareunimedicos.med.br/index.pl?C=A&V=5F69645F3D31373226636F756E7472793D30265F65765F3D5375626D697426713D6F6E636F6C6F67696126737465705365617263685F696E6465783D31333230265F666F726D5365617263685375626D69743D25334164656661756C7425334126747970653D30266163743D736561726368
p133
sI134
Vhttp://medial-saude.guiareunimedicos.med.br/index.pl?C=A&V=636F756E7472793D30265F69645F3D31373226713D6F6E636F6C6F676961265F65765F3D5375626D697426737465705365617263685F696E6465783D3133333026747970653D30265F666F726D5365617263685375626D69743D25334164656661756C74253341266163743D736561726368
p134
sI135
Vhttp://medial-saude.guiareunimedicos.med.br/index.pl?C=A&V=5F69645F3D31373226636F756E7472793D30265F65765F3D5375626D697426713D6F6E636F6C6F67696126737465705365617263685F696E6465783D31333430265F666F726D5365617263685375626D69743D25334164656661756C7425334126747970653D30266163743D736561726368
p135
sI136
Vhttp://medial-saude.guiareunimedicos.med.br/index.pl?C=A&V=636F756E7472793D30265F69645F3D31373226713D6F6E636F6C6F676961265F65765F3D5375626D697426737465705365617263685F696E6465783D3133353026747970653D30265F666F726D5365617263685375626D69743D25334164656661756C74253341266163743D736561726368
p136
sI137
Vhttp://medial-saude.guiareunimedicos.med.br/index.pl?C=A&V=5F69645F3D31373226636F756E7472793D30265F65765F3D5375626D697426713D6F6E636F6C6F67696126737465705365617263685F696E6465783D31333630265F666F726D5365617263685375626D69743D25334164656661756C7425334126747970653D30266163743D736561726368
p137
sI138
Vhttp://medial-saude.guiareunimedicos.med.br/index.pl?C=A&V=636F756E7472793D30265F69645F3D31373226713D6F6E636F6C6F676961265F65765F3D5375626D697426737465705365617263685F696E6465783D3133373026747970653D30265F666F726D5365617263685375626D69743D25334164656661756C74253341266163743D736561726368
p138
sI139
Vhttp://medial-saude.guiareunimedicos.med.br/index.pl?C=A&V=5F69645F3D31373226636F756E7472793D30265F65765F3D5375626D697426713D6F6E636F6C6F67696126737465705365617263685F696E6465783D31333830265F666F726D5365617263685375626D69743D25334164656661756C7425334126747970653D30266163743D736561726368
p139
sI140
Vhttp://medial-saude.guiareunimedicos.med.br/index.pl?C=A&V=636F756E7472793D30265F69645F3D31373226713D6F6E636F6C6F676961265F65765F3D5375626D697426737465705365617263685F696E6465783D3133393026747970653D30265F666F726D5365617263685375626D69743D25334164656661756C74253341266163743D736561726368
p140
sI141
Vhttp://medial-saude.guiareunimedicos.med.br/index.pl?C=A&V=5F69645F3D31373226636F756E7472793D30265F65765F3D5375626D697426713D6F6E636F6C6F67696126737465705365617263685F696E6465783D31343030265F666F726D5365617263685375626D69743D25334164656661756C7425334126747970653D30266163743D736561726368
p141
sI142
Vhttp://medial-saude.guiareunimedicos.med.br/index.pl?C=A&V=636F756E7472793D30265F69645F3D31373226713D6F6E636F6C6F676961265F65765F3D5375626D697426737465705365617263685F696E6465783D3134313026747970653D30265F666F726D5365617263685375626D69743D25334164656661756C74253341266163743D736561726368
p142
sI143
Vhttp://medial-saude.guiareunimedicos.med.br/index.pl?C=A&V=5F69645F3D31373226636F756E7472793D30265F65765F3D5375626D697426713D6F6E636F6C6F67696126737465705365617263685F696E6465783D31343230265F666F726D5365617263685375626D69743D25334164656661756C7425334126747970653D30266163743D736561726368
p143
sI144
Vhttp://medial-saude.guiareunimedicos.med.br/index.pl?C=A&V=636F756E7472793D30265F69645F3D31373226713D6F6E636F6C6F676961265F65765F3D5375626D697426737465705365617263685F696E6465783D3134333026747970653D30265F666F726D5365617263685375626D69743D25334164656661756C74253341266163743D736561726368
p144
sI145
Vhttp://medial-saude.guiareunimedicos.med.br/index.pl?C=A&V=5F69645F3D31373226636F756E7472793D30265F65765F3D5375626D697426713D6F6E636F6C6F67696126737465705365617263685F696E6465783D31343430265F666F726D5365617263685375626D69743D25334164656661756C7425334126747970653D30266163743D736561726368
p145
sI146
Vhttp://medial-saude.guiareunimedicos.med.br/index.pl?C=A&V=636F756E7472793D30265F69645F3D31373226713D6F6E636F6C6F676961265F65765F3D5375626D697426737465705365617263685F696E6465783D3134353026747970653D30265F666F726D5365617263685375626D69743D25334164656661756C74253341266163743D736561726368
p146
sI147
Vhttp://medial-saude.guiareunimedicos.med.br/index.pl?C=A&V=5F69645F3D31373226636F756E7472793D30265F65765F3D5375626D697426713D6F6E636F6C6F67696126737465705365617263685F696E6465783D31343630265F666F726D5365617263685375626D69743D25334164656661756C7425334126747970653D30266163743D736561726368
p147
sI148
Vhttp://medial-saude.guiareunimedicos.med.br/index.pl?C=A&V=636F756E7472793D30265F69645F3D31373226713D6F6E636F6C6F676961265F65765F3D5375626D697426737465705365617263685F696E6465783D3134373026747970653D30265F666F726D5365617263685375626D69743D25334164656661756C74253341266163743D736561726368
p148
sI149
Vhttp://medial-saude.guiareunimedicos.med.br/index.pl?C=A&V=5F69645F3D31373226636F756E7472793D30265F65765F3D5375626D697426713D6F6E636F6C6F67696126737465705365617263685F696E6465783D31343830265F666F726D5365617263685375626D69743D25334164656661756C7425334126747970653D30266163743D736561726368
p149
sI150
Vhttp://medial-saude.guiareunimedicos.med.br/index.pl?C=A&V=636F756E7472793D30265F69645F3D31373226713D6F6E636F6C6F676961265F65765F3D5375626D697426737465705365617263685F696E6465783D3134393026747970653D30265F666F726D5365617263685375626D69743D25334164656661756C74253341266163743D736561726368
p150
sI151
Vhttp://medial-saude.guiareunimedicos.med.br/index.pl?C=A&V=5F69645F3D31373226636F756E7472793D30265F65765F3D5375626D697426713D6F6E636F6C6F67696126737465705365617263685F696E6465783D31353030265F666F726D5365617263685375626D69743D25334164656661756C7425334126747970653D30266163743D736561726368
p151
sI152
Vhttp://medial-saude.guiareunimedicos.med.br/index.pl?C=A&V=636F756E7472793D30265F69645F3D31373226713D6F6E636F6C6F676961265F65765F3D5375626D697426737465705365617263685F696E6465783D3135313026747970653D30265F666F726D5365617263685375626D69743D25334164656661756C74253341266163743D736561726368
p152
sI153
Vhttp://medial-saude.guiareunimedicos.med.br/index.pl?C=A&V=5F69645F3D31373226636F756E7472793D30265F65765F3D5375626D697426713D6F6E636F6C6F67696126737465705365617263685F696E6465783D31353230265F666F726D5365617263685375626D69743D25334164656661756C7425334126747970653D30266163743D736561726368
p153
sI154
Vhttp://medial-saude.guiareunimedicos.med.br/index.pl?C=A&V=636F756E7472793D30265F69645F3D31373226713D6F6E636F6C6F676961265F65765F3D5375626D697426737465705365617263685F696E6465783D3135333026747970653D30265F666F726D5365617263685375626D69743D25334164656661756C74253341266163743D736561726368
p154
sI155
Vhttp://medial-saude.guiareunimedicos.med.br/index.pl?C=A&V=5F69645F3D31373226636F756E7472793D30265F65765F3D5375626D697426713D6F6E636F6C6F67696126737465705365617263685F696E6465783D31353430265F666F726D5365617263685375626D69743D25334164656661756C7425334126747970653D30266163743D736561726368
p155
sI156
Vhttp://medial-saude.guiareunimedicos.med.br/index.pl?C=A&V=636F756E7472793D30265F69645F3D31373226713D6F6E636F6C6F676961265F65765F3D5375626D697426737465705365617263685F696E6465783D3135353026747970653D30265F666F726D5365617263685375626D69743D25334164656661756C74253341266163743D736561726368
p156
sI157
Vhttp://medial-saude.guiareunimedicos.med.br/index.pl?C=A&V=5F69645F3D31373226636F756E7472793D30265F65765F3D5375626D697426713D6F6E636F6C6F67696126737465705365617263685F696E6465783D31353630265F666F726D5365617263685375626D69743D25334164656661756C7425334126747970653D30266163743D736561726368
p157
sI158
Vhttp://medial-saude.guiareunimedicos.med.br/index.pl?C=A&V=636F756E7472793D30265F69645F3D31373226713D6F6E636F6C6F676961265F65765F3D5375626D697426737465705365617263685F696E6465783D3135373026747970653D30265F666F726D5365617263685375626D69743D25334164656661756C74253341266163743D736561726368
p158
sI159
Vhttp://medial-saude.guiareunimedicos.med.br/index.pl?C=A&V=5F69645F3D31373226636F756E7472793D30265F65765F3D5375626D697426713D6F6E636F6C6F67696126737465705365617263685F696E6465783D31353830265F666F726D5365617263685375626D69743D25334164656661756C7425334126747970653D30266163743D736561726368
p159
sI160
Vhttp://medial-saude.guiareunimedicos.med.br/index.pl?C=A&V=636F756E7472793D30265F69645F3D31373226713D6F6E636F6C6F676961265F65765F3D5375626D697426737465705365617263685F696E6465783D3135393026747970653D30265F666F726D5365617263685375626D69743D25334164656661756C74253341266163743D736561726368
p160
sI161
Vhttp://medial-saude.guiareunimedicos.med.br/index.pl?C=A&V=5F69645F3D31373226636F756E7472793D30265F65765F3D5375626D697426713D6F6E636F6C6F67696126737465705365617263685F696E6465783D31363030265F666F726D5365617263685375626D69743D25334164656661756C7425334126747970653D30266163743D736561726368
p161
sI162
Vhttp://medial-saude.guiareunimedicos.med.br/index.pl?C=A&V=636F756E7472793D30265F69645F3D31373226713D6F6E636F6C6F676961265F65765F3D5375626D697426737465705365617263685F696E6465783D3136313026747970653D30265F666F726D5365617263685375626D69743D25334164656661756C74253341266163743D736561726368
p162
sI163
Vhttp://medial-saude.guiareunimedicos.med.br/index.pl?C=A&V=5F69645F3D31373226636F756E7472793D30265F65765F3D5375626D697426713D6F6E636F6C6F67696126737465705365617263685F696E6465783D31363230265F666F726D5365617263685375626D69743D25334164656661756C7425334126747970653D30266163743D736561726368
p163
sI164
Vhttp://medial-saude.guiareunimedicos.med.br/index.pl?C=A&V=636F756E7472793D30265F69645F3D31373226713D6F6E636F6C6F676961265F65765F3D5375626D697426737465705365617263685F696E6465783D3136333026747970653D30265F666F726D5365617263685375626D69743D25334164656661756C74253341266163743D736561726368
p164
sI165
Vhttp://medial-saude.guiareunimedicos.med.br/index.pl?C=A&V=5F69645F3D31373226636F756E7472793D30265F65765F3D5375626D697426713D6F6E636F6C6F67696126737465705365617263685F696E6465783D31363430265F666F726D5365617263685375626D69743D25334164656661756C7425334126747970653D30266163743D736561726368
p165
sI166
Vhttp://medial-saude.guiareunimedicos.med.br/index.pl?C=A&V=636F756E7472793D30265F69645F3D31373226713D6F6E636F6C6F676961265F65765F3D5375626D697426737465705365617263685F696E6465783D3136353026747970653D30265F666F726D5365617263685375626D69743D25334164656661756C74253341266163743D736561726368
p166
sI167
Vhttp://medial-saude.guiareunimedicos.med.br/index.pl?C=A&V=5F69645F3D31373226636F756E7472793D30265F65765F3D5375626D697426713D6F6E636F6C6F67696126737465705365617263685F696E6465783D31363630265F666F726D5365617263685375626D69743D25334164656661756C7425334126747970653D30266163743D736561726368
p167
sI168
Vhttp://medial-saude.guiareunimedicos.med.br/index.pl?C=A&V=636F756E7472793D30265F69645F3D31373226713D6F6E636F6C6F676961265F65765F3D5375626D697426737465705365617263685F696E6465783D3136373026747970653D30265F666F726D5365617263685375626D69743D25334164656661756C74253341266163743D736561726368
p168
sI169
Vhttp://medial-saude.guiareunimedicos.med.br/index.pl?C=A&V=5F69645F3D31373226636F756E7472793D30265F65765F3D5375626D697426713D6F6E636F6C6F67696126737465705365617263685F696E6465783D31363830265F666F726D5365617263685375626D69743D25334164656661756C7425334126747970653D30266163743D736561726368
p169
sI170
Vhttp://medial-saude.guiareunimedicos.med.br/index.pl?C=A&V=636F756E7472793D30265F69645F3D31373226713D6F6E636F6C6F676961265F65765F3D5375626D697426737465705365617263685F696E6465783D3136393026747970653D30265F666F726D5365617263685375626D69743D25334164656661756C74253341266163743D736561726368
p170
sI171
Vhttp://medial-saude.guiareunimedicos.med.br/index.pl?C=A&V=5F69645F3D31373226636F756E7472793D30265F65765F3D5375626D697426713D6F6E636F6C6F67696126737465705365617263685F696E6465783D31373030265F666F726D5365617263685375626D69743D25334164656661756C7425334126747970653D30266163743D736561726368
p171
sI172
Vhttp://medial-saude.guiareunimedicos.med.br/index.pl?C=A&V=636F756E7472793D30265F69645F3D31373226713D6F6E636F6C6F676961265F65765F3D5375626D697426737465705365617263685F696E6465783D3137313026747970653D30265F666F726D5365617263685375626D69743D25334164656661756C74253341266163743D736561726368
p172
sI173
Vhttp://medial-saude.guiareunimedicos.med.br/index.pl?C=A&V=5F69645F3D31373226636F756E7472793D30265F65765F3D5375626D697426713D6F6E636F6C6F67696126737465705365617263685F696E6465783D31373230265F666F726D5365617263685375626D69743D25334164656661756C7425334126747970653D30266163743D736561726368
p173
sI174
Vhttp://medial-saude.guiareunimedicos.med.br/index.pl?C=A&V=636F756E7472793D30265F69645F3D31373226713D6F6E636F6C6F676961265F65765F3D5375626D697426737465705365617263685F696E6465783D3137333026747970653D30265F666F726D5365617263685375626D69743D25334164656661756C74253341266163743D736561726368
p174
s.