(dp0
I1
Vhttp://medial-saude.guiareunimedicos.med.br/index.pl?C=A&V=5F69645F3D31373226636F756E7472793D30265F65765F3D5375626D697426713D6F6E636F6C6F67696126737465705365617263685F696E6465783D30265F666F726D5365617263685375626D69743D25334164656661756C7425334126747970653D30266163743D736561726368
p1
sI2
Vhttp://medial-saude.guiareunimedicos.med.br/index.pl?C=A&V=636F756E7472793D30265F69645F3D31373226713D6F6E636F6C6F676961265F65765F3D5375626D697426737465705365617263685F696E6465783D313026747970653D30265F666F726D5365617263685375626D69743D25334164656661756C74253341266163743D736561726368
p2
sI3
Vhttp://medial-saude.guiareunimedicos.med.br/index.pl?C=A&V=636F756E7472793D30265F69645F3D31373226713D6F6E636F6C6F676961265F65765F3D5375626D697426737465705365617263685F696E6465783D323026747970653D30265F666F726D5365617263685375626D69743D25334164656661756C74253341266163743D736561726368
p3
sI4
Vhttp://medial-saude.guiareunimedicos.med.br/index.pl?C=A&V=636F756E7472793D30265F69645F3D31373226713D6F6E636F6C6F676961265F65765F3D5375626D697426737465705365617263685F696E6465783D333026747970653D30265F666F726D5365617263685375626D69743D25334164656661756C74253341266163743D736561726368
p4
sI5
Vhttp://medial-saude.guiareunimedicos.med.br/index.pl?C=A&V=5F69645F3D31373226636F756E7472793D30265F65765F3D5375626D697426713D6F6E636F6C6F67696126737465705365617263685F696E6465783D3430265F666F726D5365617263685375626D69743D25334164656661756C7425334126747970653D30266163743D736561726368
p5
sI6
Vhttp://medial-saude.guiareunimedicos.med.br/index.pl?C=A&V=636F756E7472793D30265F69645F3D31373226713D6F6E636F6C6F676961265F65765F3D5375626D697426737465705365617263685F696E6465783D353026747970653D30265F666F726D5365617263685375626D69743D25334164656661756C74253341266163743D736561726368
p6
sI7
Vhttp://medial-saude.guiareunimedicos.med.br/index.pl?C=A&V=5F69645F3D31373226636F756E7472793D30265F65765F3D5375626D697426713D6F6E636F6C6F67696126737465705365617263685F696E6465783D3630265F666F726D5365617263685375626D69743D25334164656661756C7425334126747970653D30266163743D736561726368
p7
sI8
Vhttp://medial-saude.guiareunimedicos.med.br/index.pl?C=A&V=636F756E7472793D30265F69645F3D31373226713D6F6E636F6C6F676961265F65765F3D5375626D697426737465705365617263685F696E6465783D373026747970653D30265F666F726D5365617263685375626D69743D25334164656661756C74253341266163743D736561726368
p8
sI9
Vhttp://medial-saude.guiareunimedicos.med.br/index.pl?C=A&V=5F69645F3D31373226636F756E7472793D30265F65765F3D5375626D697426713D6F6E636F6C6F67696126737465705365617263685F696E6465783D3830265F666F726D5365617263685375626D69743D25334164656661756C7425334126747970653D30266163743D736561726368
p9
sI10
Vhttp://medial-saude.guiareunimedicos.med.br/index.pl?C=A&V=636F756E7472793D30265F69645F3D31373226713D6F6E636F6C6F676961265F65765F3D5375626D697426737465705365617263685F696E6465783D393026747970653D30265F666F726D5365617263685375626D69743D25334164656661756C74253341266163743D736561726368
p10
sI11
Vhttp://medial-saude.guiareunimedicos.med.br/index.pl?C=A&V=5F69645F3D31373226636F756E7472793D30265F65765F3D5375626D697426713D6F6E636F6C6F67696126737465705365617263685F696E6465783D313030265F666F726D5365617263685375626D69743D25334164656661756C7425334126747970653D30266163743D736561726368
p11
sI12
Vhttp://medial-saude.guiareunimedicos.med.br/index.pl?C=A&V=636F756E7472793D30265F69645F3D31373226713D6F6E636F6C6F676961265F65765F3D5375626D697426737465705365617263685F696E6465783D31313026747970653D30265F666F726D5365617263685375626D69743D25334164656661756C74253341266163743D736561726368
p12
sI13
Vhttp://medial-saude.guiareunimedicos.med.br/index.pl?C=A&V=5F69645F3D31373226636F756E7472793D30265F65765F3D5375626D697426713D6F6E636F6C6F67696126737465705365617263685F696E6465783D313230265F666F726D5365617263685375626D69743D25334164656661756C7425334126747970653D30266163743D736561726368
p13
sI14
Vhttp://medial-saude.guiareunimedicos.med.br/index.pl?C=A&V=636F756E7472793D30265F69645F3D31373226713D6F6E636F6C6F676961265F65765F3D5375626D697426737465705365617263685F696E6465783D31333026747970653D30265F666F726D5365617263685375626D69743D25334164656661756C74253341266163743D736561726368
p14
sI15
Vhttp://medial-saude.guiareunimedicos.med.br/index.pl?C=A&V=5F69645F3D31373226636F756E7472793D30265F65765F3D5375626D697426713D6F6E636F6C6F67696126737465705365617263685F696E6465783D313430265F666F726D5365617263685375626D69743D25334164656661756C7425334126747970653D30266163743D736561726368
p15
sI16
Vhttp://medial-saude.guiareunimedicos.med.br/index.pl?C=A&V=636F756E7472793D30265F69645F3D31373226713D6F6E636F6C6F676961265F65765F3D5375626D697426737465705365617263685F696E6465783D31353026747970653D30265F666F726D5365617263685375626D69743D25334164656661756C74253341266163743D736561726368
p16
sI17
Vhttp://medial-saude.guiareunimedicos.med.br/index.pl?C=A&V=5F69645F3D31373226636F756E7472793D30265F65765F3D5375626D697426713D6F6E636F6C6F67696126737465705365617263685F696E6465783D313630265F666F726D5365617263685375626D69743D25334164656661756C7425334126747970653D30266163743D736561726368
p17
sI18
Vhttp://medial-saude.guiareunimedicos.med.br/index.pl?C=A&V=636F756E7472793D30265F69645F3D31373226713D6F6E636F6C6F676961265F65765F3D5375626D697426737465705365617263685F696E6465783D31373026747970653D30265F666F726D5365617263685375626D69743D25334164656661756C74253341266163743D736561726368
p18
sI19
Vhttp://medial-saude.guiareunimedicos.med.br/index.pl?C=A&V=5F69645F3D31373226636F756E7472793D30265F65765F3D5375626D697426713D6F6E636F6C6F67696126737465705365617263685F696E6465783D313830265F666F726D5365617263685375626D69743D25334164656661756C7425334126747970653D30266163743D736561726368
p19
sI20
Vhttp://medial-saude.guiareunimedicos.med.br/index.pl?C=A&V=636F756E7472793D30265F69645F3D31373226713D6F6E636F6C6F676961265F65765F3D5375626D697426737465705365617263685F696E6465783D31393026747970653D30265F666F726D5365617263685375626D69743D25334164656661756C74253341266163743D736561726368
p20
sI21
Vhttp://medial-saude.guiareunimedicos.med.br/index.pl?C=A&V=5F69645F3D31373226636F756E7472793D30265F65765F3D5375626D697426713D6F6E636F6C6F67696126737465705365617263685F696E6465783D323030265F666F726D5365617263685375626D69743D25334164656661756C7425334126747970653D30266163743D736561726368
p21
sI22
Vhttp://medial-saude.guiareunimedicos.med.br/index.pl?C=A&V=636F756E7472793D30265F69645F3D31373226713D6F6E636F6C6F676961265F65765F3D5375626D697426737465705365617263685F696E6465783D32313026747970653D30265F666F726D5365617263685375626D69743D25334164656661756C74253341266163743D736561726368
p22
sI23
Vhttp://medial-saude.guiareunimedicos.med.br/index.pl?C=A&V=5F69645F3D31373226636F756E7472793D30265F65765F3D5375626D697426713D6F6E636F6C6F67696126737465705365617263685F696E6465783D323230265F666F726D5365617263685375626D69743D25334164656661756C7425334126747970653D30266163743D736561726368
p23
sI24
Vhttp://medial-saude.guiareunimedicos.med.br/index.pl?C=A&V=636F756E7472793D30265F69645F3D31373226713D6F6E636F6C6F676961265F65765F3D5375626D697426737465705365617263685F696E6465783D32333026747970653D30265F666F726D5365617263685375626D69743D25334164656661756C74253341266163743D736561726368
p24
sI25
Vhttp://medial-saude.guiareunimedicos.med.br/index.pl?C=A&V=5F69645F3D31373226636F756E7472793D30265F65765F3D5375626D697426713D6F6E636F6C6F67696126737465705365617263685F696E6465783D323430265F666F726D5365617263685375626D69743D25334164656661756C7425334126747970653D30266163743D736561726368
p25
sI26
Vhttp://medial-saude.guiareunimedicos.med.br/index.pl?C=A&V=636F756E7472793D30265F69645F3D31373226713D6F6E636F6C6F676961265F65765F3D5375626D697426737465705365617263685F696E6465783D32353026747970653D30265F666F726D5365617263685375626D69743D25334164656661756C74253341266163743D736561726368
p26
sI27
Vhttp://medial-saude.guiareunimedicos.med.br/index.pl?C=A&V=5F69645F3D31373226636F756E7472793D30265F65765F3D5375626D697426713D6F6E636F6C6F67696126737465705365617263685F696E6465783D323630265F666F726D5365617263685375626D69743D25334164656661756C7425334126747970653D30266163743D736561726368
p27
sI28
Vhttp://medial-saude.guiareunimedicos.med.br/index.pl?C=A&V=636F756E7472793D30265F69645F3D31373226713D6F6E636F6C6F676961265F65765F3D5375626D697426737465705365617263685F696E6465783D32373026747970653D30265F666F726D5365617263685375626D69743D25334164656661756C74253341266163743D736561726368
p28
sI29
Vhttp://medial-saude.guiareunimedicos.med.br/index.pl?C=A&V=5F69645F3D31373226636F756E7472793D30265F65765F3D5375626D697426713D6F6E636F6C6F67696126737465705365617263685F696E6465783D323830265F666F726D5365617263685375626D69743D25334164656661756C7425334126747970653D30266163743D736561726368
p29
sI30
Vhttp://medial-saude.guiareunimedicos.med.br/index.pl?C=A&V=636F756E7472793D30265F69645F3D31373226713D6F6E636F6C6F676961265F65765F3D5375626D697426737465705365617263685F696E6465783D32393026747970653D30265F666F726D5365617263685375626D69743D25334164656661756C74253341266163743D736561726368
p30
sI31
Vhttp://medial-saude.guiareunimedicos.med.br/index.pl?C=A&V=5F69645F3D31373226636F756E7472793D30265F65765F3D5375626D697426713D6F6E636F6C6F67696126737465705365617263685F696E6465783D333030265F666F726D5365617263685375626D69743D25334164656661756C7425334126747970653D30266163743D736561726368
p31
sI32
Vhttp://medial-saude.guiareunimedicos.med.br/index.pl?C=A&V=636F756E7472793D30265F69645F3D31373226713D6F6E636F6C6F676961265F65765F3D5375626D697426737465705365617263685F696E6465783D33313026747970653D30265F666F726D5365617263685375626D69743D25334164656661756C74253341266163743D736561726368
p32
sI33
Vhttp://medial-saude.guiareunimedicos.med.br/index.pl?C=A&V=5F69645F3D31373226636F756E7472793D30265F65765F3D5375626D697426713D6F6E636F6C6F67696126737465705365617263685F696E6465783D333230265F666F726D5365617263685375626D69743D25334164656661756C7425334126747970653D30266163743D736561726368
p33
sI34
Vhttp://medial-saude.guiareunimedicos.med.br/index.pl?C=A&V=636F756E7472793D30265F69645F3D31373226713D6F6E636F6C6F676961265F65765F3D5375626D697426737465705365617263685F696E6465783D33333026747970653D30265F666F726D5365617263685375626D69743D25334164656661756C74253341266163743D736561726368
p34
sI35
Vhttp://medial-saude.guiareunimedicos.med.br/index.pl?C=A&V=5F69645F3D31373226636F756E7472793D30265F65765F3D5375626D697426713D6F6E636F6C6F67696126737465705365617263685F696E6465783D333430265F666F726D5365617263685375626D69743D25334164656661756C7425334126747970653D30266163743D736561726368
p35
sI36
Vhttp://medial-saude.guiareunimedicos.med.br/index.pl?C=A&V=636F756E7472793D30265F69645F3D31373226713D6F6E636F6C6F676961265F65765F3D5375626D697426737465705365617263685F696E6465783D33353026747970653D30265F666F726D5365617263685375626D69743D25334164656661756C74253341266163743D736561726368
p36
sI37
Vhttp://medial-saude.guiareunimedicos.med.br/index.pl?C=A&V=5F69645F3D31373226636F756E7472793D30265F65765F3D5375626D697426713D6F6E636F6C6F67696126737465705365617263685F696E6465783D333630265F666F726D5365617263685375626D69743D25334164656661756C7425334126747970653D30266163743D736561726368
p37
sI38
Vhttp://medial-saude.guiareunimedicos.med.br/index.pl?C=A&V=636F756E7472793D30265F69645F3D31373226713D6F6E636F6C6F676961265F65765F3D5375626D697426737465705365617263685F696E6465783D33373026747970653D30265F666F726D5365617263685375626D69743D25334164656661756C74253341266163743D736561726368
p38
sI39
Vhttp://medial-saude.guiareunimedicos.med.br/index.pl?C=A&V=5F69645F3D31373226636F756E7472793D30265F65765F3D5375626D697426713D6F6E636F6C6F67696126737465705365617263685F696E6465783D333830265F666F726D5365617263685375626D69743D25334164656661756C7425334126747970653D30266163743D736561726368
p39
sI40
Vhttp://medial-saude.guiareunimedicos.med.br/index.pl?C=A&V=636F756E7472793D30265F69645F3D31373226713D6F6E636F6C6F676961265F65765F3D5375626D697426737465705365617263685F696E6465783D33393026747970653D30265F666F726D5365617263685375626D69743D25334164656661756C74253341266163743D736561726368
p40
sI41
Vhttp://medial-saude.guiareunimedicos.med.br/index.pl?C=A&V=5F69645F3D31373226636F756E7472793D30265F65765F3D5375626D697426713D6F6E636F6C6F67696126737465705365617263685F696E6465783D343030265F666F726D5365617263685375626D69743D25334164656661756C7425334126747970653D30266163743D736561726368
p41
sI42
Vhttp://medial-saude.guiareunimedicos.med.br/index.pl?C=A&V=636F756E7472793D30265F69645F3D31373226713D6F6E636F6C6F676961265F65765F3D5375626D697426737465705365617263685F696E6465783D34313026747970653D30265F666F726D5365617263685375626D69743D25334164656661756C74253341266163743D736561726368
p42
sI43
Vhttp://medial-saude.guiareunimedicos.med.br/index.pl?C=A&V=5F69645F3D31373226636F756E7472793D30265F65765F3D5375626D697426713D6F6E636F6C6F67696126737465705365617263685F696E6465783D343230265F666F726D5365617263685375626D69743D25334164656661756C7425334126747970653D30266163743D736561726368
p43
sI44
Vhttp://medial-saude.guiareunimedicos.med.br/index.pl?C=A&V=636F756E7472793D30265F69645F3D31373226713D6F6E636F6C6F676961265F65765F3D5375626D697426737465705365617263685F696E6465783D34333026747970653D30265F666F726D5365617263685375626D69743D25334164656661756C74253341266163743D736561726368
p44
sI45
Vhttp://medial-saude.guiareunimedicos.med.br/index.pl?C=A&V=5F69645F3D31373226636F756E7472793D30265F65765F3D5375626D697426713D6F6E636F6C6F67696126737465705365617263685F696E6465783D343430265F666F726D5365617263685375626D69743D25334164656661756C7425334126747970653D30266163743D736561726368
p45
sI46
Vhttp://medial-saude.guiareunimedicos.med.br/index.pl?C=A&V=636F756E7472793D30265F69645F3D31373226713D6F6E636F6C6F676961265F65765F3D5375626D697426737465705365617263685F696E6465783D34353026747970653D30265F666F726D5365617263685375626D69743D25334164656661756C74253341266163743D736561726368
p46
sI47
Vhttp://medial-saude.guiareunimedicos.med.br/index.pl?C=A&V=5F69645F3D31373226636F756E7472793D30265F65765F3D5375626D697426713D6F6E636F6C6F67696126737465705365617263685F696E6465783D343630265F666F726D5365617263685375626D69743D25334164656661756C7425334126747970653D30266163743D736561726368
p47
sI48
Vhttp://medial-saude.guiareunimedicos.med.br/index.pl?C=A&V=636F756E7472793D30265F69645F3D31373226713D6F6E636F6C6F676961265F65765F3D5375626D697426737465705365617263685F696E6465783D34373026747970653D30265F666F726D5365617263685375626D69743D25334164656661756C74253341266163743D736561726368
p48
sI49
Vhttp://medial-saude.guiareunimedicos.med.br/index.pl?C=A&V=5F69645F3D31373226636F756E7472793D30265F65765F3D5375626D697426713D6F6E636F6C6F67696126737465705365617263685F696E6465783D343830265F666F726D5365617263685375626D69743D25334164656661756C7425334126747970653D30266163743D736561726368
p49
sI50
Vhttp://medial-saude.guiareunimedicos.med.br/index.pl?C=A&V=636F756E7472793D30265F69645F3D31373226713D6F6E636F6C6F676961265F65765F3D5375626D697426737465705365617263685F696E6465783D34393026747970653D30265F666F726D5365617263685375626D69743D25334164656661756C74253341266163743D736561726368
p50
sI51
Vhttp://medial-saude.guiareunimedicos.med.br/index.pl?C=A&V=5F69645F3D31373226636F756E7472793D30265F65765F3D5375626D697426713D6F6E636F6C6F67696126737465705365617263685F696E6465783D353030265F666F726D5365617263685375626D69743D25334164656661756C7425334126747970653D30266163743D736561726368
p51
sI52
Vhttp://medial-saude.guiareunimedicos.med.br/index.pl?C=A&V=636F756E7472793D30265F69645F3D31373226713D6F6E636F6C6F676961265F65765F3D5375626D697426737465705365617263685F696E6465783D35313026747970653D30265F666F726D5365617263685375626D69743D25334164656661756C74253341266163743D736561726368
p52
sI53
Vhttp://medial-saude.guiareunimedicos.med.br/index.pl?C=A&V=5F69645F3D31373226636F756E7472793D30265F65765F3D5375626D697426713D6F6E636F6C6F67696126737465705365617263685F696E6465783D353230265F666F726D5365617263685375626D69743D25334164656661756C7425334126747970653D30266163743D736561726368
p53
sI54
Vhttp://medial-saude.guiareunimedicos.med.br/index.pl?C=A&V=636F756E7472793D30265F69645F3D31373226713D6F6E636F6C6F676961265F65765F3D5375626D697426737465705365617263685F696E6465783D35333026747970653D30265F666F726D5365617263685375626D69743D25334164656661756C74253341266163743D736561726368
p54
sI55
Vhttp://medial-saude.guiareunimedicos.med.br/index.pl?C=A&V=5F69645F3D31373226636F756E7472793D30265F65765F3D5375626D697426713D6F6E636F6C6F67696126737465705365617263685F696E6465783D353430265F666F726D5365617263685375626D69743D25334164656661756C7425334126747970653D30266163743D736561726368
p55
sI56
Vhttp://medial-saude.guiareunimedicos.med.br/index.pl?C=A&V=636F756E7472793D30265F69645F3D31373226713D6F6E636F6C6F676961265F65765F3D5375626D697426737465705365617263685F696E6465783D35353026747970653D30265F666F726D5365617263685375626D69743D25334164656661756C74253341266163743D736561726368
p56
sI57
Vhttp://medial-saude.guiareunimedicos.med.br/index.pl?C=A&V=5F69645F3D31373226636F756E7472793D30265F65765F3D5375626D697426713D6F6E636F6C6F67696126737465705365617263685F696E6465783D353630265F666F726D5365617263685375626D69743D25334164656661756C7425334126747970653D30266163743D736561726368
p57
sI58
Vhttp://medial-saude.guiareunimedicos.med.br/index.pl?C=A&V=636F756E7472793D30265F69645F3D31373226713D6F6E636F6C6F676961265F65765F3D5375626D697426737465705365617263685F696E6465783D35373026747970653D30265F666F726D5365617263685375626D69743D25334164656661756C74253341266163743D736561726368
p58
sI59
Vhttp://medial-saude.guiareunimedicos.med.br/index.pl?C=A&V=5F69645F3D31373226636F756E7472793D30265F65765F3D5375626D697426713D6F6E636F6C6F67696126737465705365617263685F696E6465783D353830265F666F726D5365617263685375626D69743D25334164656661756C7425334126747970653D30266163743D736561726368
p59
sI60
Vhttp://medial-saude.guiareunimedicos.med.br/index.pl?C=A&V=636F756E7472793D30265F69645F3D31373226713D6F6E636F6C6F676961265F65765F3D5375626D697426737465705365617263685F696E6465783D35393026747970653D30265F666F726D5365617263685375626D69743D25334164656661756C74253341266163743D736561726368
p60
sI61
Vhttp://medial-saude.guiareunimedicos.med.br/index.pl?C=A&V=5F69645F3D31373226636F756E7472793D30265F65765F3D5375626D697426713D6F6E636F6C6F67696126737465705365617263685F696E6465783D363030265F666F726D5365617263685375626D69743D25334164656661756C7425334126747970653D30266163743D736561726368
p61
sI62
Vhttp://medial-saude.guiareunimedicos.med.br/index.pl?C=A&V=636F756E7472793D30265F69645F3D31373226713D6F6E636F6C6F676961265F65765F3D5375626D697426737465705365617263685F696E6465783D36313026747970653D30265F666F726D5365617263685375626D69743D25334164656661756C74253341266163743D736561726368
p62
sI63
Vhttp://medial-saude.guiareunimedicos.med.br/index.pl?C=A&V=5F69645F3D31373226636F756E7472793D30265F65765F3D5375626D697426713D6F6E636F6C6F67696126737465705365617263685F696E6465783D363230265F666F726D5365617263685375626D69743D25334164656661756C7425334126747970653D30266163743D736561726368
p63
sI64
Vhttp://medial-saude.guiareunimedicos.med.br/index.pl?C=A&V=636F756E7472793D30265F69645F3D31373226713D6F6E636F6C6F676961265F65765F3D5375626D697426737465705365617263685F696E6465783D36333026747970653D30265F666F726D5365617263685375626D69743D25334164656661756C74253341266163743D736561726368
p64
sI65
Vhttp://medial-saude.guiareunimedicos.med.br/index.pl?C=A&V=5F69645F3D31373226636F756E7472793D30265F65765F3D5375626D697426713D6F6E636F6C6F67696126737465705365617263685F696E6465783D363430265F666F726D5365617263685375626D69743D25334164656661756C7425334126747970653D30266163743D736561726368
p65
sI66
Vhttp://medial-saude.guiareunimedicos.med.br/index.pl?C=A&V=636F756E7472793D30265F69645F3D31373226713D6F6E636F6C6F676961265F65765F3D5375626D697426737465705365617263685F696E6465783D36353026747970653D30265F666F726D5365617263685375626D69743D25334164656661756C74253341266163743D736561726368
p66
sI67
Vhttp://medial-saude.guiareunimedicos.med.br/index.pl?C=A&V=5F69645F3D31373226636F756E7472793D30265F65765F3D5375626D697426713D6F6E636F6C6F67696126737465705365617263685F696E6465783D363630265F666F726D5365617263685375626D69743D25334164656661756C7425334126747970653D30266163743D736561726368
p67
sI68
Vhttp://medial-saude.guiareunimedicos.med.br/index.pl?C=A&V=636F756E7472793D30265F69645F3D31373226713D6F6E636F6C6F676961265F65765F3D5375626D697426737465705365617263685F696E6465783D36373026747970653D30265F666F726D5365617263685375626D69743D25334164656661756C74253341266163743D736561726368
p68
sI69
Vhttp://medial-saude.guiareunimedicos.med.br/index.pl?C=A&V=5F69645F3D31373226636F756E7472793D30265F65765F3D5375626D697426713D6F6E636F6C6F67696126737465705365617263685F696E6465783D363830265F666F726D5365617263685375626D69743D25334164656661756C7425334126747970653D30266163743D736561726368
p69
sI70
Vhttp://medial-saude.guiareunimedicos.med.br/index.pl?C=A&V=636F756E7472793D30265F69645F3D31373226713D6F6E636F6C6F676961265F65765F3D5375626D697426737465705365617263685F696E6465783D36393026747970653D30265F666F726D5365617263685375626D69743D25334164656661756C74253341266163743D736561726368
p70
sI71
Vhttp://medial-saude.guiareunimedicos.med.br/index.pl?C=A&V=5F69645F3D31373226636F756E7472793D30265F65765F3D5375626D697426713D6F6E636F6C6F67696126737465705365617263685F696E6465783D373030265F666F726D5365617263685375626D69743D25334164656661756C7425334126747970653D30266163743D736561726368
p71
sI72
Vhttp://medial-saude.guiareunimedicos.med.br/index.pl?C=A&V=636F756E7472793D30265F69645F3D31373226713D6F6E636F6C6F676961265F65765F3D5375626D697426737465705365617263685F696E6465783D37313026747970653D30265F666F726D5365617263685375626D69743D25334164656661756C74253341266163743D736561726368
p72
sI73
Vhttp://medial-saude.guiareunimedicos.med.br/index.pl?C=A&V=5F69645F3D31373226636F756E7472793D30265F65765F3D5375626D697426713D6F6E636F6C6F67696126737465705365617263685F696E6465783D373230265F666F726D5365617263685375626D69743D25334164656661756C7425334126747970653D30266163743D736561726368
p73
sI74
Vhttp://medial-saude.guiareunimedicos.med.br/index.pl?C=A&V=636F756E7472793D30265F69645F3D31373226713D6F6E636F6C6F676961265F65765F3D5375626D697426737465705365617263685F696E6465783D37333026747970653D30265F666F726D5365617263685375626D69743D25334164656661756C74253341266163743D736561726368
p74
sI75
Vhttp://medial-saude.guiareunimedicos.med.br/index.pl?C=A&V=5F69645F3D31373226636F756E7472793D30265F65765F3D5375626D697426713D6F6E636F6C6F67696126737465705365617263685F696E6465783D373430265F666F726D5365617263685375626D69743D25334164656661756C7425334126747970653D30266163743D736561726368
p75
sI76
Vhttp://medial-saude.guiareunimedicos.med.br/index.pl?C=A&V=636F756E7472793D30265F69645F3D31373226713D6F6E636F6C6F676961265F65765F3D5375626D697426737465705365617263685F696E6465783D37353026747970653D30265F666F726D5365617263685375626D69743D25334164656661756C74253341266163743D736561726368
p76
sI77
Vhttp://medial-saude.guiareunimedicos.med.br/index.pl?C=A&V=5F69645F3D31373226636F756E7472793D30265F65765F3D5375626D697426713D6F6E636F6C6F67696126737465705365617263685F696E6465783D373630265F666F726D5365617263685375626D69743D25334164656661756C7425334126747970653D30266163743D736561726368
p77
sI78
Vhttp://medial-saude.guiareunimedicos.med.br/index.pl?C=A&V=636F756E7472793D30265F69645F3D31373226713D6F6E636F6C6F676961265F65765F3D5375626D697426737465705365617263685F696E6465783D37373026747970653D30265F666F726D5365617263685375626D69743D25334164656661756C74253341266163743D736561726368
p78
sI79
Vhttp://medial-saude.guiareunimedicos.med.br/index.pl?C=A&V=5F69645F3D31373226636F756E7472793D30265F65765F3D5375626D697426713D6F6E636F6C6F67696126737465705365617263685F696E6465783D373830265F666F726D5365617263685375626D69743D25334164656661756C7425334126747970653D30266163743D736561726368
p79
sI80
Vhttp://medial-saude.guiareunimedicos.med.br/index.pl?C=A&V=636F756E7472793D30265F69645F3D31373226713D6F6E636F6C6F676961265F65765F3D5375626D697426737465705365617263685F696E6465783D37393026747970653D30265F666F726D5365617263685375626D69743D25334164656661756C74253341266163743D736561726368
p80
sI81
Vhttp://medial-saude.guiareunimedicos.med.br/index.pl?C=A&V=5F69645F3D31373226636F756E7472793D30265F65765F3D5375626D697426713D6F6E636F6C6F67696126737465705365617263685F696E6465783D383030265F666F726D5365617263685375626D69743D25334164656661756C7425334126747970653D30266163743D736561726368
p81
s.